target datalayout = "e-m:e-p270:32:32-p271:32:32-p272:64:64-i64:64-i128:128-f80:128-n8:16:32:64-S128"
target triple = "x86_64-pc-linux-gnu"

%"class.llvm::StringRef" = type { ptr, i64 }
%"class.llvm::iterator_facade_base<llvm::StringMapIterator<bool>, std::forward_iterator_tag, llvm::StringMapEntry<bool>>::PointerProxy" = type { ptr }
%"struct.std::pair.94" = type <{ %"class.llvm::StringMapIterator", i8, [7 x i8] }>
%"class.llvm::StringMapIterator" = type { %"class.llvm::StringMapIterBase.96" }
%"class.llvm::StringMapIterBase.96" = type { ptr }
%"class.llvm::StringMapEntryStorage" = type <{ %"class.llvm::StringMapEntryBase", i8, [7 x i8] }>
%"class.llvm::StringMapEntryBase" = type { i64 }

@.str.12 = private unnamed_addr constant [13 x i8] c"relaxed-simd\00", align 1
@.str.14 = private unnamed_addr constant [8 x i8] c"simd128\00", align 1

; Function Attrs: mustprogress nounwind uwtable
define linkonce_odr hidden void @_ZN4llvm20iterator_facade_baseINS_17StringMapIteratorIbEESt20forward_iterator_tagNS_14StringMapEntryIbEElPS5_RS5_E12PointerProxyC2IS7_EEOT_(ptr noundef nonnull align 8 dereferenceable(8) %0, ptr noundef nonnull align 8 dereferenceable(16) %1) unnamed_addr #0 comdat align 2 {
  %3 = alloca ptr, align 8
  %4 = alloca ptr, align 8
  store ptr %0, ptr %3, align 8
  store ptr %1, ptr %4, align 8
  %5 = load ptr, ptr %3, align 8
  %6 = getelementptr inbounds nuw %"class.llvm::iterator_facade_base<llvm::StringMapIterator<bool>, std::forward_iterator_tag, llvm::StringMapEntry<bool>>::PointerProxy", ptr %5, i32 0, i32 0
  %7 = load ptr, ptr %4, align 8
  store ptr %7, ptr %6, align 8
  ret void
}

; Function Attrs: mustprogress nounwind uwtable
define linkonce_odr hidden noundef nonnull align 8 dereferenceable(16) ptr @_ZNK4llvm17StringMapIteratorIbEdeEv(ptr noundef nonnull align 8 dereferenceable(8) %0) #0 comdat align 2 {
  %2 = alloca ptr, align 8
  store ptr %0, ptr %2, align 8
  %3 = load ptr, ptr %2, align 8
  %4 = getelementptr inbounds nuw %"class.llvm::StringMapIterBase.96", ptr %3, i32 0, i32 0
  %5 = load ptr, ptr %4, align 8
  %6 = load ptr, ptr %5, align 8
  ret ptr %6
}

; Function Attrs: mustprogress nounwind uwtable
define linkonce_odr hidden noundef ptr @_ZNK4llvm20iterator_facade_baseINS_17StringMapIteratorIbEESt20forward_iterator_tagNS_14StringMapEntryIbEElPS5_RS5_E12PointerProxyptEv(ptr noundef nonnull align 8 dereferenceable(8) %0) #0 comdat align 2 {
  %2 = alloca ptr, align 8
  store ptr %0, ptr %2, align 8
  %3 = load ptr, ptr %2, align 8
  %4 = getelementptr inbounds nuw %"class.llvm::iterator_facade_base<llvm::StringMapIterator<bool>, std::forward_iterator_tag, llvm::StringMapEntry<bool>>::PointerProxy", ptr %3, i32 0, i32 0
  %5 = load ptr, ptr %4, align 8
  ret ptr %5
}

; Function Attrs: mustprogress nounwind uwtable
define linkonce_odr hidden ptr @_ZNK4llvm20iterator_facade_baseINS_17StringMapIteratorIbEESt20forward_iterator_tagNS_14StringMapEntryIbEElPS5_RS5_EptEv(ptr noundef nonnull align 1 dereferenceable(1) %0) #0 comdat align 2 {
  %2 = alloca %"class.llvm::iterator_facade_base<llvm::StringMapIterator<bool>, std::forward_iterator_tag, llvm::StringMapEntry<bool>>::PointerProxy", align 8
  %3 = alloca ptr, align 8
  store ptr %0, ptr %3, align 8
  %4 = load ptr, ptr %3, align 8
  %5 = call noundef nonnull align 8 dereferenceable(16) ptr @_ZNK4llvm17StringMapIteratorIbEdeEv(ptr noundef nonnull align 8 dereferenceable(8) %4)
  call void @_ZN4llvm20iterator_facade_baseINS_17StringMapIteratorIbEESt20forward_iterator_tagNS_14StringMapEntryIbEElPS5_RS5_E12PointerProxyC2IS7_EEOT_(ptr noundef nonnull align 8 dereferenceable(8) %2, ptr noundef nonnull align 8 dereferenceable(16) %5)
  %6 = getelementptr inbounds nuw %"class.llvm::iterator_facade_base<llvm::StringMapIterator<bool>, std::forward_iterator_tag, llvm::StringMapEntry<bool>>::PointerProxy", ptr %2, i32 0, i32 0
  %7 = load ptr, ptr %6, align 8
  ret ptr %7
}

; Function Attrs: mustprogress nounwind uwtable
define linkonce_odr hidden { ptr, i8 } @_ZN4llvm9StringMapIbNS_15MallocAllocatorEE11try_emplaceIJEEESt4pairINS_17StringMapIteratorIbEEbENS_9StringRefEDpOT_(ptr noundef nonnull align 8 dereferenceable(24) %0, ptr %1, i64 %2) #0 comdat align 2 {
  %4 = alloca %"struct.std::pair.94", align 8
  %5 = alloca %"class.llvm::StringRef", align 8
  %6 = alloca ptr, align 8
  %7 = alloca %"class.llvm::StringRef", align 8
  %8 = alloca %"class.llvm::StringRef", align 8
  %9 = alloca { ptr, i8 }, align 8
  %10 = getelementptr inbounds nuw { ptr, i64 }, ptr %5, i32 0, i32 0
  store ptr %1, ptr %10, align 8
  %11 = getelementptr inbounds nuw { ptr, i64 }, ptr %5, i32 0, i32 1
  store i64 %2, ptr %11, align 8
  store ptr %0, ptr %6, align 8
  %12 = load ptr, ptr %6, align 8
  call void @llvm.memcpy.p0.p0.i64(ptr align 8 %7, ptr align 8 %5, i64 16, i1 false)
  call void @llvm.memcpy.p0.p0.i64(ptr align 8 %8, ptr align 8 %5, i64 16, i1 false)
  %13 = getelementptr inbounds nuw { ptr, i64 }, ptr %8, i32 0, i32 0
  %14 = load ptr, ptr %13, align 8
  %15 = getelementptr inbounds nuw { ptr, i64 }, ptr %8, i32 0, i32 1
  %16 = load i64, ptr %15, align 8
  %17 = call noundef i32 @_ZN4llvm13StringMapImpl4hashENS_9StringRefE(ptr %14, i64 %16)
  %18 = getelementptr inbounds nuw { ptr, i64 }, ptr %7, i32 0, i32 0
  %19 = load ptr, ptr %18, align 8
  %20 = getelementptr inbounds nuw { ptr, i64 }, ptr %7, i32 0, i32 1
  %21 = load i64, ptr %20, align 8
  %22 = call { ptr, i8 } @_ZN4llvm9StringMapIbNS_15MallocAllocatorEE21try_emplace_with_hashIJEEESt4pairINS_17StringMapIteratorIbEEbENS_9StringRefEjDpOT_(ptr noundef nonnull align 8 dereferenceable(24) %12, ptr %19, i64 %21, i32 noundef %17)
  store { ptr, i8 } %22, ptr %9, align 8
  call void @llvm.memcpy.p0.p0.i64(ptr align 8 %4, ptr align 8 %9, i64 9, i1 false)
  %23 = load { ptr, i8 }, ptr %4, align 8
  ret { ptr, i8 } %23
}

; Function Attrs: mustprogress nounwind uwtable
define linkonce_odr hidden noundef ptr @_ZNK4llvm9StringRef4dataEv(ptr noundef nonnull align 8 dereferenceable(16) %0) #0 comdat align 2 {
  %2 = alloca ptr, align 8
  store ptr %0, ptr %2, align 8
  %3 = load ptr, ptr %2, align 8
  %4 = getelementptr inbounds nuw %"class.llvm::StringRef", ptr %3, i32 0, i32 0
  %5 = load ptr, ptr %4, align 8
  ret ptr %5
}

; Function Attrs: mustprogress nounwind uwtable
define linkonce_odr hidden noundef zeroext i1 @_ZNK4llvm9StringRef5emptyEv(ptr noundef nonnull align 8 dereferenceable(16) %0) #0 comdat align 2 {
  %2 = alloca ptr, align 8
  store ptr %0, ptr %2, align 8
  %3 = load ptr, ptr %2, align 8
  %4 = getelementptr inbounds nuw %"class.llvm::StringRef", ptr %3, i32 0, i32 1
  %5 = load i64, ptr %4, align 8
  %6 = icmp eq i64 %5, 0
  ret i1 %6
}

; Function Attrs: mustprogress nounwind uwtable
define linkonce_odr hidden noundef i64 @_ZNK4llvm9StringRef4sizeEv(ptr noundef nonnull align 8 dereferenceable(16) %0) #0 comdat align 2 {
  %2 = alloca ptr, align 8
  store ptr %0, ptr %2, align 8
  %3 = load ptr, ptr %2, align 8
  %4 = getelementptr inbounds nuw %"class.llvm::StringRef", ptr %3, i32 0, i32 1
  %5 = load i64, ptr %4, align 8
  ret i64 %5
}

; Function Attrs: mustprogress nounwind uwtable
define linkonce_odr hidden noundef i64 @_ZNSt11char_traitsIcE6lengthEPKc(ptr noundef %0) #0 comdat align 2 {
  %2 = alloca ptr, align 8
  store ptr %0, ptr %2, align 8
  %3 = load ptr, ptr %2, align 8
  %4 = call i64 @strlen(ptr noundef %3) #9
  ret i64 %4
}

; Function Attrs: mustprogress nounwind uwtable
define linkonce_odr hidden noundef nonnull align 1 dereferenceable(1) ptr @_ZN4llvm9StringMapIbNS_15MallocAllocatorEEixENS_9StringRefE(ptr noundef nonnull align 8 dereferenceable(24) %0, ptr %1, i64 %2) #0 comdat align 2 {
  %4 = alloca %"class.llvm::StringRef", align 8
  %5 = alloca ptr, align 8
  %6 = alloca %"class.llvm::iterator_facade_base<llvm::StringMapIterator<bool>, std::forward_iterator_tag, llvm::StringMapEntry<bool>>::PointerProxy", align 8
  %7 = alloca %"struct.std::pair.94", align 8
  %8 = alloca %"class.llvm::StringRef", align 8
  %9 = alloca { ptr, i8 }, align 8
  %10 = getelementptr inbounds nuw { ptr, i64 }, ptr %4, i32 0, i32 0
  store ptr %1, ptr %10, align 8
  %11 = getelementptr inbounds nuw { ptr, i64 }, ptr %4, i32 0, i32 1
  store i64 %2, ptr %11, align 8
  store ptr %0, ptr %5, align 8
  %12 = load ptr, ptr %5, align 8
  call void @llvm.memcpy.p0.p0.i64(ptr align 8 %8, ptr align 8 %4, i64 16, i1 false)
  %13 = getelementptr inbounds nuw { ptr, i64 }, ptr %8, i32 0, i32 0
  %14 = load ptr, ptr %13, align 8
  %15 = getelementptr inbounds nuw { ptr, i64 }, ptr %8, i32 0, i32 1
  %16 = load i64, ptr %15, align 8
  %17 = call { ptr, i8 } @_ZN4llvm9StringMapIbNS_15MallocAllocatorEE11try_emplaceIJEEESt4pairINS_17StringMapIteratorIbEEbENS_9StringRefEDpOT_(ptr noundef nonnull align 8 dereferenceable(24) %12, ptr %14, i64 %16)
  store { ptr, i8 } %17, ptr %9, align 8
  call void @llvm.memcpy.p0.p0.i64(ptr align 8 %7, ptr align 8 %9, i64 9, i1 false)
  %18 = getelementptr inbounds nuw %"struct.std::pair.94", ptr %7, i32 0, i32 0
  %19 = call ptr @_ZNK4llvm20iterator_facade_baseINS_17StringMapIteratorIbEESt20forward_iterator_tagNS_14StringMapEntryIbEElPS5_RS5_EptEv(ptr noundef nonnull align 1 dereferenceable(1) %18)
  %20 = getelementptr inbounds nuw %"class.llvm::iterator_facade_base<llvm::StringMapIterator<bool>, std::forward_iterator_tag, llvm::StringMapEntry<bool>>::PointerProxy", ptr %6, i32 0, i32 0
  store ptr %19, ptr %20, align 8
  %21 = call noundef ptr @_ZNK4llvm20iterator_facade_baseINS_17StringMapIteratorIbEESt20forward_iterator_tagNS_14StringMapEntryIbEElPS5_RS5_E12PointerProxyptEv(ptr noundef nonnull align 8 dereferenceable(8) %6)
  %22 = getelementptr inbounds nuw %"class.llvm::StringMapEntryStorage", ptr %21, i32 0, i32 1
  ret ptr %22
}

; Function Attrs: mustprogress nounwind uwtable
define linkonce_odr hidden noundef zeroext i1 @_ZN4llvmeqENS_9StringRefES0_(ptr %0, i64 %1, ptr %2, i64 %3) #0 comdat {
  %5 = alloca i1, align 1
  %6 = alloca %"class.llvm::StringRef", align 8
  %7 = alloca %"class.llvm::StringRef", align 8
  %8 = getelementptr inbounds nuw { ptr, i64 }, ptr %6, i32 0, i32 0
  store ptr %0, ptr %8, align 8
  %9 = getelementptr inbounds nuw { ptr, i64 }, ptr %6, i32 0, i32 1
  store i64 %1, ptr %9, align 8
  %10 = getelementptr inbounds nuw { ptr, i64 }, ptr %7, i32 0, i32 0
  store ptr %2, ptr %10, align 8
  %11 = getelementptr inbounds nuw { ptr, i64 }, ptr %7, i32 0, i32 1
  store i64 %3, ptr %11, align 8
  %12 = call noundef i64 @_ZNK4llvm9StringRef4sizeEv(ptr noundef nonnull align 8 dereferenceable(16) %6)
  %13 = call noundef i64 @_ZNK4llvm9StringRef4sizeEv(ptr noundef nonnull align 8 dereferenceable(16) %7)
  %14 = icmp ne i64 %12, %13
  br i1 %14, label %15, label %16

15:                                               ; preds = %4
  store i1 false, ptr %5, align 1
  br label %25

16:                                               ; preds = %4
  %17 = call noundef zeroext i1 @_ZNK4llvm9StringRef5emptyEv(ptr noundef nonnull align 8 dereferenceable(16) %6)
  br i1 %17, label %18, label %19

18:                                               ; preds = %16
  store i1 true, ptr %5, align 1
  br label %25

19:                                               ; preds = %16
  %20 = call noundef ptr @_ZNK4llvm9StringRef4dataEv(ptr noundef nonnull align 8 dereferenceable(16) %6)
  %21 = call noundef ptr @_ZNK4llvm9StringRef4dataEv(ptr noundef nonnull align 8 dereferenceable(16) %7)
  %22 = call noundef i64 @_ZNK4llvm9StringRef4sizeEv(ptr noundef nonnull align 8 dereferenceable(16) %6)
  %23 = call i32 @memcmp(ptr noundef %20, ptr noundef %21, i64 noundef %22) #10
  %24 = icmp eq i32 %23, 0
  store i1 %24, ptr %5, align 1
  br label %25

25:                                               ; preds = %19, %18, %15
  %26 = load i1, ptr %5, align 1
  ret i1 %26
}

; Function Attrs: mustprogress nounwind uwtable
define linkonce_odr hidden void @_ZN4llvm9StringRefC2EPKc(ptr noundef nonnull align 8 dereferenceable(16) %0, ptr noundef %1) unnamed_addr #0 comdat align 2 {
  %3 = alloca ptr, align 8
  %4 = alloca ptr, align 8
  store ptr %0, ptr %3, align 8
  store ptr %1, ptr %4, align 8
  %5 = load ptr, ptr %3, align 8
  %6 = getelementptr inbounds nuw %"class.llvm::StringRef", ptr %5, i32 0, i32 0
  %7 = load ptr, ptr %4, align 8
  store ptr %7, ptr %6, align 8
  %8 = getelementptr inbounds nuw %"class.llvm::StringRef", ptr %5, i32 0, i32 1
  %9 = load ptr, ptr %4, align 8
  %10 = icmp ne ptr %9, null
  br i1 %10, label %11, label %14

11:                                               ; preds = %2
  %12 = load ptr, ptr %4, align 8
  %13 = call noundef i64 @_ZNSt11char_traitsIcE6lengthEPKc(ptr noundef %12)
  br label %15

14:                                               ; preds = %2
  br label %15

15:                                               ; preds = %14, %11
  %16 = phi i64 [ %13, %11 ], [ 0, %14 ]
  store i64 %16, ptr %8, align 8
  ret void
}

; Function Attrs: mustprogress nounwind uwtable
define hidden void @_ZNK5clang7targets21WebAssemblyTargetInfo17setFeatureEnabledERN4llvm9StringMapIbNS2_15MallocAllocatorEEENS2_9StringRefEb(ptr noundef nonnull align 8 dereferenceable(544) %0, ptr noundef nonnull align 8 dereferenceable(24) %1, ptr %2, i64 %3, i1 noundef zeroext %4) unnamed_addr #0 align 2 {
  %6 = alloca %"class.llvm::StringRef", align 8
  %7 = alloca ptr, align 8
  %8 = alloca ptr, align 8
  %9 = alloca i8, align 1
  %10 = alloca %"class.llvm::StringRef", align 8
  %11 = alloca %"class.llvm::StringRef", align 8
  %12 = alloca %"class.llvm::StringRef", align 8
  %13 = alloca %"class.llvm::StringRef", align 8
  %14 = alloca %"class.llvm::StringRef", align 8
  %15 = getelementptr inbounds nuw { ptr, i64 }, ptr %6, i32 0, i32 0
  store ptr %2, ptr %15, align 8
  %16 = getelementptr inbounds nuw { ptr, i64 }, ptr %6, i32 0, i32 1
  store i64 %3, ptr %16, align 8
  store ptr %0, ptr %7, align 8
  store ptr %1, ptr %8, align 8
  %17 = zext i1 %4 to i8
  store i8 %17, ptr %9, align 1
  call void @llvm.memcpy.p0.p0.i64(ptr align 8 %10, ptr align 8 %6, i64 16, i1 false)
  call void @_ZN4llvm9StringRefC2EPKc(ptr noundef nonnull align 8 dereferenceable(16) %11, ptr noundef @.str.14)
  %18 = getelementptr inbounds nuw { ptr, i64 }, ptr %10, i32 0, i32 0
  %19 = load ptr, ptr %18, align 8
  %20 = getelementptr inbounds nuw { ptr, i64 }, ptr %10, i32 0, i32 1
  %21 = load i64, ptr %20, align 8
  %22 = getelementptr inbounds nuw { ptr, i64 }, ptr %11, i32 0, i32 0
  %23 = load ptr, ptr %22, align 8
  %24 = getelementptr inbounds nuw { ptr, i64 }, ptr %11, i32 0, i32 1
  %25 = load i64, ptr %24, align 8
  %26 = call noundef zeroext i1 @_ZN4llvmeqENS_9StringRefES0_(ptr %19, i64 %21, ptr %23, i64 %25)
  br i1 %26, label %27, label %31

27:                                               ; preds = %5
  %28 = load ptr, ptr %8, align 8
  %29 = load i8, ptr %9, align 1
  %30 = trunc i8 %29 to i1
  call void @_ZN5clang7targets21WebAssemblyTargetInfo12setSIMDLevelERN4llvm9StringMapIbNS2_15MallocAllocatorEEENS1_8SIMDEnumEb(ptr noundef nonnull align 8 dereferenceable(24) %28, i32 noundef 1, i1 noundef zeroext %30)
  br label %56

31:                                               ; preds = %5
  call void @llvm.memcpy.p0.p0.i64(ptr align 8 %12, ptr align 8 %6, i64 16, i1 false)
  call void @_ZN4llvm9StringRefC2EPKc(ptr noundef nonnull align 8 dereferenceable(16) %13, ptr noundef @.str.12)
  %32 = getelementptr inbounds nuw { ptr, i64 }, ptr %12, i32 0, i32 0
  %33 = load ptr, ptr %32, align 8
  %34 = getelementptr inbounds nuw { ptr, i64 }, ptr %12, i32 0, i32 1
  %35 = load i64, ptr %34, align 8
  %36 = getelementptr inbounds nuw { ptr, i64 }, ptr %13, i32 0, i32 0
  %37 = load ptr, ptr %36, align 8
  %38 = getelementptr inbounds nuw { ptr, i64 }, ptr %13, i32 0, i32 1
  %39 = load i64, ptr %38, align 8
  %40 = call noundef zeroext i1 @_ZN4llvmeqENS_9StringRefES0_(ptr %33, i64 %35, ptr %37, i64 %39)
  br i1 %40, label %41, label %45

41:                                               ; preds = %31
  %42 = load ptr, ptr %8, align 8
  %43 = load i8, ptr %9, align 1
  %44 = trunc i8 %43 to i1
  call void @_ZN5clang7targets21WebAssemblyTargetInfo12setSIMDLevelERN4llvm9StringMapIbNS2_15MallocAllocatorEEENS1_8SIMDEnumEb(ptr noundef nonnull align 8 dereferenceable(24) %42, i32 noundef 2, i1 noundef zeroext %44)
  br label %55

45:                                               ; preds = %31
  %46 = load i8, ptr %9, align 1
  %47 = trunc i8 %46 to i1
  %48 = load ptr, ptr %8, align 8
  call void @llvm.memcpy.p0.p0.i64(ptr align 8 %14, ptr align 8 %6, i64 16, i1 false)
  %49 = getelementptr inbounds nuw { ptr, i64 }, ptr %14, i32 0, i32 0
  %50 = load ptr, ptr %49, align 8
  %51 = getelementptr inbounds nuw { ptr, i64 }, ptr %14, i32 0, i32 1
  %52 = load i64, ptr %51, align 8
  %53 = call noundef nonnull align 1 dereferenceable(1) ptr @_ZN4llvm9StringMapIbNS_15MallocAllocatorEEixENS_9StringRefE(ptr noundef nonnull align 8 dereferenceable(24) %48, ptr %50, i64 %52)
  %54 = zext i1 %47 to i8
  store i8 %54, ptr %53, align 1
  br label %55

55:                                               ; preds = %45, %41
  br label %56

56:                                               ; preds = %55, %27
  ret void
}