; Function Attrs: mustprogress nounwind uwtable
define hidden void @_ZNK5clang7targets21WebAssemblyTargetInfo17setFeatureEnabledERN4llvm9StringMapIbNS2_15MallocAllocatorEEENS2_9StringRefEb(ptr nonnull readnone align 8 captures(none) %0, ptr noundef nonnull align 8 dereferenceable(24) %1, ptr %2, i64 %3, i1 noundef zeroext %4) unnamed_addr #0 align 2 {
  %6 = zext i1 %4 to i8
  switch i64 %3, label %_ZN4llvmeqENS_9StringRefES0_.exit15.thread22 [
    i64 7, label %_ZN4llvmeqENS_9StringRefES0_.exit
    i64 12, label %_ZN4llvmeqENS_9StringRefES0_.exit15
  ]

_ZN4llvmeqENS_9StringRefES0_.exit:                ; preds = %5
  %bcmp.i = tail call i32 @bcmp(ptr noundef nonnull dereferenceable(7) %2, ptr noundef nonnull dereferenceable(7) @.str.14, i64 7)
  %7 = icmp eq i32 %bcmp.i, 0
  br i1 %7, label %_ZN4llvmeqENS_9StringRefES0_.exit.thread, label %_ZN4llvmeqENS_9StringRefES0_.exit15.thread22

_ZN4llvmeqENS_9StringRefES0_.exit.thread:         ; preds = %_ZN4llvmeqENS_9StringRefES0_.exit
  tail call void @_ZN5clang7targets21WebAssemblyTargetInfo12setSIMDLevelERN4llvm9StringMapIbNS2_15MallocAllocatorEEENS1_8SIMDEnumEb(ptr noundef nonnull align 8 dereferenceable(24) %1, i32 noundef 1, i1 noundef zeroext %4)
  br label %13

_ZN4llvmeqENS_9StringRefES0_.exit15:              ; preds = %5
  %bcmp.i14 = tail call i32 @bcmp(ptr noundef nonnull dereferenceable(12) %2, ptr noundef nonnull dereferenceable(12) @.str.12, i64 12)
  %8 = icmp eq i32 %bcmp.i14, 0
  br i1 %8, label %_ZN4llvmeqENS_9StringRefES0_.exit15.thread, label %_ZN4llvmeqENS_9StringRefES0_.exit15.thread22

_ZN4llvmeqENS_9StringRefES0_.exit15.thread:       ; preds = %_ZN4llvmeqENS_9StringRefES0_.exit15
  tail call void @_ZN5clang7targets21WebAssemblyTargetInfo12setSIMDLevelERN4llvm9StringMapIbNS2_15MallocAllocatorEEENS1_8SIMDEnumEb(ptr noundef nonnull align 8 dereferenceable(24) %1, i32 noundef 2, i1 noundef zeroext %4)
  br label %13

_ZN4llvmeqENS_9StringRefES0_.exit15.thread22:     ; preds = %_ZN4llvmeqENS_9StringRefES0_.exit, %5, %_ZN4llvmeqENS_9StringRefES0_.exit15
  %9 = tail call noundef i32 @_ZN4llvm13StringMapImpl4hashENS_9StringRefE(ptr %2, i64 %3) #13
  %10 = tail call { ptr, i8 } @_ZN4llvm9StringMapIbNS_15MallocAllocatorEE21try_emplace_with_hashIJEEESt4pairINS_17StringMapIteratorIbEEbENS_9StringRefEjDpOT_(ptr noundef nonnull align 8 dereferenceable(24) %1, ptr %2, i64 %3, i32 noundef %9)
  %.fca.0.extract.i = extractvalue { ptr, i8 } %10, 0
  %11 = load ptr, ptr %.fca.0.extract.i, align 8
  %12 = getelementptr inbounds nuw i8, ptr %11, i64 8
  store i8 %6, ptr %12, align 1
  br label %13

13:                                               ; preds = %_ZN4llvmeqENS_9StringRefES0_.exit15.thread, %_ZN4llvmeqENS_9StringRefES0_.exit15.thread22, %_ZN4llvmeqENS_9StringRefES0_.exit.thread
  ret void
}